; Function Attrs: mustprogress uwtable
define hidden void @_ZN19OpenColorIO_v2_5dev13GpuShaderText18declareUniformBoolERKNSt7__cxx1112basic_stringIcSt11char_traitsIcESaIcEEE(ptr noundef nonnull align 8 dereferenceable(764) %0, ptr noundef nonnull readonly align 8 captures(none) dereferenceable(32) %1) local_unnamed_addr #5 align 2 personality ptr @__gxx_personality_v0 {
  %3 = alloca %"class.OpenColorIO_v2_5dev::GpuShaderText::GpuShaderLine", align 8
  call void @llvm.lifetime.start.p0(i64 8, ptr nonnull %3) #22
  store ptr %0, ptr %3, align 8, !tbaa !3, !alias.scope !447
  %4 = load i32, ptr %0, align 8, !tbaa !60
  %5 = icmp eq i32 %4, 8
  %6 = select i1 %5, ptr @.str, ptr @.str.32
  %7 = getelementptr inbounds nuw i8, ptr %0, i64 384
  %8 = select i1 %5, i64 0, i64 8
  %9 = invoke noundef nonnull align 8 dereferenceable(8) ptr @_ZSt16__ostream_insertIcSt11char_traitsIcEERSt13basic_ostreamIT_T0_ES6_PKS3_l(ptr noundef nonnull align 8 dereferenceable(8) %7, ptr noundef nonnull %6, i64 noundef %8)
          to label %_ZN19OpenColorIO_v2_5dev13GpuShaderText13GpuShaderLinelsEPKc.exit unwind label %19

_ZN19OpenColorIO_v2_5dev13GpuShaderText13GpuShaderLinelsEPKc.exit: ; preds = %2
  %10 = invoke noundef nonnull align 8 dereferenceable(8) ptr @_ZSt16__ostream_insertIcSt11char_traitsIcEERSt13basic_ostreamIT_T0_ES6_PKS3_l(ptr noundef nonnull align 8 dereferenceable(8) %7, ptr noundef nonnull @.str.15, i64 noundef 5)
          to label %_ZN19OpenColorIO_v2_5dev13GpuShaderText13GpuShaderLinelsEPKc.exit3 unwind label %19

_ZN19OpenColorIO_v2_5dev13GpuShaderText13GpuShaderLinelsEPKc.exit3: ; preds = %_ZN19OpenColorIO_v2_5dev13GpuShaderText13GpuShaderLinelsEPKc.exit
  %11 = load ptr, ptr %1, align 8, !tbaa !25
  %12 = getelementptr inbounds nuw i8, ptr %1, i64 8
  %13 = load i64, ptr %12, align 8, !tbaa !26
  %14 = invoke noundef nonnull align 8 dereferenceable(8) ptr @_ZSt16__ostream_insertIcSt11char_traitsIcEERSt13basic_ostreamIT_T0_ES6_PKS3_l(ptr noundef nonnull align 8 dereferenceable(8) %7, ptr noundef %11, i64 noundef %13)
          to label %_ZN19OpenColorIO_v2_5dev13GpuShaderText13GpuShaderLinelsERKNSt7__cxx1112basic_stringIcSt11char_traitsIcESaIcEEE.exit unwind label %19

_ZN19OpenColorIO_v2_5dev13GpuShaderText13GpuShaderLinelsERKNSt7__cxx1112basic_stringIcSt11char_traitsIcESaIcEEE.exit: ; preds = %_ZN19OpenColorIO_v2_5dev13GpuShaderText13GpuShaderLinelsEPKc.exit3
  %15 = invoke noundef nonnull align 8 dereferenceable(8) ptr @_ZSt16__ostream_insertIcSt11char_traitsIcEERSt13basic_ostreamIT_T0_ES6_PKS3_l(ptr noundef nonnull align 8 dereferenceable(8) %7, ptr noundef nonnull @.str.9, i64 noundef 1)
          to label %_ZN19OpenColorIO_v2_5dev13GpuShaderText13GpuShaderLinelsEPKc.exit4 unwind label %19

_ZN19OpenColorIO_v2_5dev13GpuShaderText13GpuShaderLinelsEPKc.exit4: ; preds = %_ZN19OpenColorIO_v2_5dev13GpuShaderText13GpuShaderLinelsERKNSt7__cxx1112basic_stringIcSt11char_traitsIcESaIcEEE.exit
  invoke void @_ZN19OpenColorIO_v2_5dev13GpuShaderText9flushLineEv(ptr noundef nonnull align 8 dereferenceable(764) %0)
          to label %_ZN19OpenColorIO_v2_5dev13GpuShaderText13GpuShaderLineD2Ev.exit unwind label %16

16:                                               ; preds = %_ZN19OpenColorIO_v2_5dev13GpuShaderText13GpuShaderLinelsEPKc.exit4
  %17 = landingpad { ptr, i32 }
          catch ptr null
  %18 = extractvalue { ptr, i32 } %17, 0
  tail call void @__clang_call_terminate(ptr %18) #21
  unreachable

_ZN19OpenColorIO_v2_5dev13GpuShaderText13GpuShaderLineD2Ev.exit: ; preds = %_ZN19OpenColorIO_v2_5dev13GpuShaderText13GpuShaderLinelsEPKc.exit4
  call void @llvm.lifetime.end.p0(i64 8, ptr nonnull %3) #22
  ret void

19:                                               ; preds = %_ZN19OpenColorIO_v2_5dev13GpuShaderText13GpuShaderLinelsERKNSt7__cxx1112basic_stringIcSt11char_traitsIcESaIcEEE.exit, %_ZN19OpenColorIO_v2_5dev13GpuShaderText13GpuShaderLinelsEPKc.exit3, %_ZN19OpenColorIO_v2_5dev13GpuShaderText13GpuShaderLinelsEPKc.exit, %2
  %20 = landingpad { ptr, i32 }
          cleanup
  call void @_ZN19OpenColorIO_v2_5dev13GpuShaderText13GpuShaderLineD2Ev(ptr noundef nonnull align 8 dereferenceable(8) %3) #22
  call void @llvm.lifetime.end.p0(i64 8, ptr nonnull %3) #22
  resume { ptr, i32 } %20
}